target datalayout = "e-m:e-p270:32:32-p271:32:32-p272:64:64-i64:64-i128:128-f80:128-n8:16:32:64-S128"
target triple = "x86_64-pc-linux-gnu"

@_ZL14invariantChars = internal constant [4 x i32] [i32 -1025, i32 -27, i32 -2013265922, i32 -2013265922], align 16
@.str.3 = private unnamed_addr constant [73 x i8] c"uprv_copyEbcdic() string[%] contains a variant character in position %d\0A\00", align 1

; Function Attrs: inlinehint mustprogress nounwind uwtable
define internal noundef signext i8 @_ZL9U_FAILURE10UErrorCode(i32 noundef %0) #3 {
  %2 = alloca i32, align 4
  store i32 %0, ptr %2, align 4, !tbaa !23
  %3 = load i32, ptr %2, align 4, !tbaa !23
  %4 = icmp sgt i32 %3, 0
  %5 = zext i1 %4 to i8
  ret i8 %5
}

; Function Attrs: mustprogress uwtable
define i32 @uprv_copyEbcdic_77(ptr noundef %0, ptr noundef %1, i32 noundef %2, ptr noundef %3, ptr noundef %4) #2 {
  %6 = alloca i32, align 4
  %7 = alloca ptr, align 8
  %8 = alloca ptr, align 8
  %9 = alloca i32, align 4
  %10 = alloca ptr, align 8
  %11 = alloca ptr, align 8
  %12 = alloca ptr, align 8
  %13 = alloca i8, align 1
  %14 = alloca i32, align 4
  %15 = alloca i32, align 4
  store ptr %0, ptr %7, align 8, !tbaa !20
  store ptr %1, ptr %8, align 8, !tbaa !22
  store i32 %2, ptr %9, align 4, !tbaa !10
  store ptr %3, ptr %10, align 8, !tbaa !22
  store ptr %4, ptr %11, align 8, !tbaa !22
  call void @llvm.lifetime.start.p0(i64 8, ptr %12) #7
  call void @llvm.lifetime.start.p0(i64 1, ptr %13) #7
  call void @llvm.lifetime.start.p0(i64 4, ptr %14) #7
  %16 = load ptr, ptr %11, align 8, !tbaa !22
  %17 = icmp eq ptr %16, null
  br i1 %17, label %23, label %18

18:                                               ; preds = %5
  %19 = load ptr, ptr %11, align 8, !tbaa !22
  %20 = load i32, ptr %19, align 4, !tbaa !23
  %21 = call noundef signext i8 @_ZL9U_FAILURE10UErrorCode(i32 noundef %20)
  %22 = icmp ne i8 %21, 0
  br i1 %22, label %23, label %24

23:                                               ; preds = %18, %5
  store i32 0, ptr %6, align 4
  store i32 1, ptr %15, align 4
  br label %105

24:                                               ; preds = %18
  %25 = load ptr, ptr %7, align 8, !tbaa !20
  %26 = icmp eq ptr %25, null
  br i1 %26, label %39, label %27

27:                                               ; preds = %24
  %28 = load ptr, ptr %8, align 8, !tbaa !22
  %29 = icmp eq ptr %28, null
  br i1 %29, label %39, label %30

30:                                               ; preds = %27
  %31 = load i32, ptr %9, align 4, !tbaa !10
  %32 = icmp slt i32 %31, 0
  br i1 %32, label %39, label %33

33:                                               ; preds = %30
  %34 = load i32, ptr %9, align 4, !tbaa !10
  %35 = icmp sgt i32 %34, 0
  br i1 %35, label %36, label %41

36:                                               ; preds = %33
  %37 = load ptr, ptr %10, align 8, !tbaa !22
  %38 = icmp eq ptr %37, null
  br i1 %38, label %39, label %41

39:                                               ; preds = %36, %30, %27, %24
  %40 = load ptr, ptr %11, align 8, !tbaa !22
  store i32 1, ptr %40, align 4, !tbaa !23
  store i32 0, ptr %6, align 4
  store i32 1, ptr %15, align 4
  br label %105

41:                                               ; preds = %36, %33
  %42 = load ptr, ptr %8, align 8, !tbaa !22
  store ptr %42, ptr %12, align 8, !tbaa !3
  %43 = load i32, ptr %9, align 4, !tbaa !10
  store i32 %43, ptr %14, align 4, !tbaa !10
  br label %44

44:                                               ; preds = %85, %41
  %45 = load i32, ptr %14, align 4, !tbaa !10
  %46 = icmp sgt i32 %45, 0
  br i1 %46, label %47, label %88

47:                                               ; preds = %44
  %48 = load ptr, ptr %12, align 8, !tbaa !3
  %49 = getelementptr inbounds nuw i8, ptr %48, i32 1
  store ptr %49, ptr %12, align 8, !tbaa !3
  %50 = load i8, ptr %48, align 1, !tbaa !12
  store i8 %50, ptr %13, align 1, !tbaa !12
  %51 = load i8, ptr %13, align 1, !tbaa !12
  %52 = zext i8 %51 to i32
  %53 = icmp ne i32 %52, 0
  br i1 %53, label %54, label %85

54:                                               ; preds = %47
  %55 = load i8, ptr %13, align 1, !tbaa !12
  %56 = zext i8 %55 to i64
  %57 = getelementptr inbounds nuw [256 x i8], ptr @_ZL15asciiFromEbcdic, i64 0, i64 %56
  %58 = load i8, ptr %57, align 1, !tbaa !12
  store i8 %58, ptr %13, align 1, !tbaa !12
  %59 = zext i8 %58 to i32
  %60 = icmp eq i32 %59, 0
  br i1 %60, label %78, label %61

61:                                               ; preds = %54
  %62 = load i8, ptr %13, align 1, !tbaa !12
  %63 = zext i8 %62 to i32
  %64 = icmp sle i32 %63, 127
  br i1 %64, label %65, label %78

65:                                               ; preds = %61
  %66 = load i8, ptr %13, align 1, !tbaa !12
  %67 = zext i8 %66 to i32
  %68 = ashr i32 %67, 5
  %69 = sext i32 %68 to i64
  %70 = getelementptr inbounds [4 x i32], ptr @_ZL14invariantChars, i64 0, i64 %69
  %71 = load i32, ptr %70, align 4, !tbaa !10
  %72 = load i8, ptr %13, align 1, !tbaa !12
  %73 = zext i8 %72 to i32
  %74 = and i32 %73, 31
  %75 = shl i32 1, %74
  %76 = and i32 %71, %75
  %77 = icmp ne i32 %76, 0
  br i1 %77, label %85, label %78

78:                                               ; preds = %65, %61, %54
  %79 = load ptr, ptr %7, align 8, !tbaa !20
  %80 = load i32, ptr %9, align 4, !tbaa !10
  %81 = load i32, ptr %9, align 4, !tbaa !10
  %82 = load i32, ptr %14, align 4, !tbaa !10
  %83 = sub nsw i32 %81, %82
  call void (ptr, ptr, ...) @udata_printError_77(ptr noundef %79, ptr noundef @.str.3, i32 noundef %80, i32 noundef %83)
  %84 = load ptr, ptr %11, align 8, !tbaa !22
  store i32 10, ptr %84, align 4, !tbaa !23
  store i32 0, ptr %6, align 4
  store i32 1, ptr %15, align 4
  br label %105

85:                                               ; preds = %65, %47
  %86 = load i32, ptr %14, align 4, !tbaa !10
  %87 = add nsw i32 %86, -1
  store i32 %87, ptr %14, align 4, !tbaa !10
  br label %44, !llvm.loop !28

88:                                               ; preds = %44
  %89 = load i32, ptr %9, align 4, !tbaa !10
  %90 = icmp sgt i32 %89, 0
  br i1 %90, label %91, label %103

91:                                               ; preds = %88
  %92 = load ptr, ptr %8, align 8, !tbaa !22
  %93 = load ptr, ptr %10, align 8, !tbaa !22
  %94 = icmp ne ptr %92, %93
  br i1 %94, label %95, label %103

95:                                               ; preds = %91
  br label %96

96:                                               ; preds = %95
  %97 = load ptr, ptr %10, align 8, !tbaa !22
  %98 = load ptr, ptr %8, align 8, !tbaa !22
  %99 = load i32, ptr %9, align 4, !tbaa !10
  %100 = sext i32 %99 to i64
  call void @llvm.memcpy.p0.p0.i64(ptr align 1 %97, ptr align 1 %98, i64 %100, i1 false)
  br label %101

101:                                              ; preds = %96
  br label %102

102:                                              ; preds = %101
  br label %103

103:                                              ; preds = %102, %91, %88
  %104 = load i32, ptr %9, align 4, !tbaa !10
  store i32 %104, ptr %6, align 4
  store i32 1, ptr %15, align 4
  br label %105

105:                                              ; preds = %103, %78, %39, %23
  call void @llvm.lifetime.end.p0(i64 4, ptr %14) #7
  call void @llvm.lifetime.end.p0(i64 1, ptr %13) #7
  call void @llvm.lifetime.end.p0(i64 8, ptr %12) #7
  %106 = load i32, ptr %6, align 4
  ret i32 %106
}