; Function Attrs: mustprogress uwtable
define range(i32 0, -2147483648) i32 @uprv_copyEbcdic_77(ptr noundef %0, ptr noundef readonly %1, i32 noundef %2, ptr noundef writeonly %3, ptr noundef %4) local_unnamed_addr #2 {
  %6 = icmp eq ptr %4, null
  br i1 %6, label %._crit_edge.thread, label %7

7:                                                ; preds = %5
  %8 = load i32, ptr %4, align 4, !tbaa !15
  %9 = icmp slt i32 %8, 1
  br i1 %9, label %10, label %._crit_edge.thread

10:                                               ; preds = %7
  %11 = icmp eq ptr %0, null
  %12 = icmp eq ptr %1, null
  %or.cond = or i1 %11, %12
  %13 = icmp slt i32 %2, 0
  %or.cond3 = or i1 %or.cond, %13
  br i1 %or.cond3, label %17, label %14

14:                                               ; preds = %10
  %15 = icmp ne i32 %2, 0
  %16 = icmp eq ptr %3, null
  %or.cond5 = and i1 %15, %16
  br i1 %or.cond5, label %17, label %.preheader

.preheader:                                       ; preds = %14
  %.not = icmp eq i32 %2, 0
  br i1 %.not, label %._crit_edge.thread, label %.lr.ph

17:                                               ; preds = %14, %10
  store i32 1, ptr %4, align 4, !tbaa !15
  br label %._crit_edge.thread

.lr.ph:                                           ; preds = %.preheader, %35
  %.054 = phi i32 [ %36, %35 ], [ %2, %.preheader ]
  %.03853 = phi ptr [ %18, %35 ], [ %1, %.preheader ]
  %18 = getelementptr inbounds nuw i8, ptr %.03853, i64 1
  %19 = load i8, ptr %.03853, align 1, !tbaa !3
  %.not47 = icmp eq i8 %19, 0
  br i1 %.not47, label %35, label %20

20:                                               ; preds = %.lr.ph
  %21 = zext i8 %19 to i64
  %22 = getelementptr inbounds nuw [256 x i8], ptr @_ZL15asciiFromEbcdic, i64 0, i64 %21
  %23 = load i8, ptr %22, align 1, !tbaa !3
  %.not48 = icmp eq i8 %23, 0
  br i1 %.not48, label %33, label %24

24:                                               ; preds = %20
  %25 = zext i8 %23 to i32
  %26 = lshr i32 %25, 5
  %27 = zext nneg i32 %26 to i64
  %28 = getelementptr inbounds nuw [4 x i32], ptr @_ZL14invariantChars, i64 0, i64 %27
  %29 = load i32, ptr %28, align 4, !tbaa !10
  %30 = and i32 %25, 31
  %31 = shl nuw i32 1, %30
  %32 = and i32 %29, %31
  %.not49 = icmp eq i32 %32, 0
  br i1 %.not49, label %33, label %35

33:                                               ; preds = %24, %20
  %34 = sub nsw i32 %2, %.054
  tail call void (ptr, ptr, ...) @udata_printError_77(ptr noundef %0, ptr noundef nonnull @.str.3, i32 noundef %2, i32 noundef %34)
  store i32 10, ptr %4, align 4, !tbaa !15
  br label %._crit_edge.thread

35:                                               ; preds = %24, %.lr.ph
  %36 = add nsw i32 %.054, -1
  %37 = icmp sgt i32 %.054, 1
  br i1 %37, label %.lr.ph, label %._crit_edge, !llvm.loop !20

._crit_edge:                                      ; preds = %35
  %.not46 = icmp ne ptr %1, %3
  %or.cond51.not = and i1 %15, %.not46
  br i1 %or.cond51.not, label %38, label %._crit_edge.thread

38:                                               ; preds = %._crit_edge
  %39 = zext nneg i32 %2 to i64
  tail call void @llvm.memcpy.p0.p0.i64(ptr align 1 %3, ptr align 1 %1, i64 %39, i1 false)
  br label %._crit_edge.thread

._crit_edge.thread:                               ; preds = %.preheader, %._crit_edge, %38, %5, %7, %33, %17
  %.039 = phi i32 [ 0, %17 ], [ 0, %33 ], [ 0, %7 ], [ 0, %5 ], [ %2, %38 ], [ %2, %._crit_edge ], [ 0, %.preheader ]
  ret i32 %.039
}